target datalayout = "e-m:e-p270:32:32-p271:32:32-p272:64:64-i64:64-i128:128-f80:128-n8:16:32:64-S128"
target triple = "x86_64-pc-linux-gnu"

%struct._packet_info = type { ptr, ptr, i32, i32, %struct.nstime_t, %struct.nstime_t, %struct.nstime_t, i8, ptr, ptr, ptr, ptr, %struct._address, %struct._address, %struct._address, %struct._address, %struct._address, %struct._address, i32, ptr, i8, [3 x i8], %struct.anon, i32, i32, i32, i32, ptr, i8, ptr, ptr, i16, i16, i32, i32, i16, i32, i32, ptr, ptr, ptr, i8, i8, i16, i16, i16, i32, i16, i16, ptr, ptr, ptr, ptr, ptr, i32, i32 }
%struct.nstime_t = type { i64, i32 }
%struct._address = type { i32, i32, ptr, ptr }
%struct.anon = type { i8, [3 x i8] }

@edonkey_desegment = internal global i8 1, align 1

; Function Attrs: null_pointer_is_valid sspstrong uwtable
define internal i32 @dissect_edonkey_tcp(ptr noundef %0, ptr noundef %1, ptr noundef %2, ptr noundef %3) #0 {
  %5 = alloca i32, align 4
  %6 = alloca ptr, align 8
  %7 = alloca ptr, align 8
  %8 = alloca ptr, align 8
  %9 = alloca ptr, align 8
  %10 = alloca i8, align 1
  %11 = alloca i32, align 4
  store ptr %0, ptr %6, align 8
  store ptr %1, ptr %7, align 8
  store ptr %2, ptr %8, align 8
  store ptr %3, ptr %9, align 8
  call void @llvm.lifetime.start.p0(i64 1, ptr %10) #6
  %12 = load ptr, ptr %6, align 8
  %13 = call zeroext i1 @tvb_bytes_exist(ptr noundef %12, i32 noundef 0, i32 noundef 5)
  br i1 %13, label %15, label %14

14:                                               ; preds = %4
  store i32 0, ptr %5, align 4
  store i32 1, ptr %11, align 4
  br label %35

15:                                               ; preds = %4
  %16 = load ptr, ptr %6, align 8
  %17 = call zeroext i8 @tvb_get_uint8(ptr noundef %16, i32 noundef 0)
  store i8 %17, ptr %10, align 1
  %18 = load i8, ptr %10, align 1
  %19 = zext i8 %18 to i32
  %20 = call ptr @try_val_to_str(i32 noundef %19, ptr noundef @edonkey_protocols)
  %21 = icmp eq ptr %20, null
  br i1 %21, label %22, label %23

22:                                               ; preds = %15
  store i32 0, ptr %5, align 4
  store i32 1, ptr %11, align 4
  br label %35

23:                                               ; preds = %15
  %24 = load ptr, ptr %7, align 8
  %25 = getelementptr inbounds nuw %struct._packet_info, ptr %24, i32 0, i32 1
  %26 = load ptr, ptr %25, align 8
  call void @col_clear(ptr noundef %26, i32 noundef 25)
  %27 = load ptr, ptr %6, align 8
  %28 = load ptr, ptr %7, align 8
  %29 = load ptr, ptr %8, align 8
  %30 = load i8, ptr @edonkey_desegment, align 1, !range !6, !noundef !7
  %31 = trunc i8 %30 to i1
  %32 = load ptr, ptr %9, align 8
  call void @tcp_dissect_pdus(ptr noundef %27, ptr noundef %28, ptr noundef %29, i1 noundef zeroext %31, i32 noundef 5, ptr noundef @get_edonkey_tcp_pdu_len, ptr noundef @dissect_edonkey_tcp_pdu, ptr noundef %32)
  %33 = load ptr, ptr %6, align 8
  %34 = call i32 @tvb_reported_length(ptr noundef %33)
  store i32 %34, ptr %5, align 4
  store i32 1, ptr %11, align 4
  br label %35

35:                                               ; preds = %23, %22, %14
  call void @llvm.lifetime.end.p0(i64 1, ptr %10) #6
  %36 = load i32, ptr %5, align 4
  ret i32 %36
}