; Function Attrs: null_pointer_is_valid sspstrong uwtable
define internal i32 @dissect_edonkey_tcp(ptr noundef %0, ptr noundef %1, ptr noundef %2, ptr noundef %3) #0 {
  %5 = tail call zeroext i1 @tvb_bytes_exist(ptr noundef %0, i32 noundef 0, i32 noundef 5)
  br i1 %5, label %6, label %17

6:                                                ; preds = %4
  %7 = tail call zeroext i8 @tvb_get_uint8(ptr noundef %0, i32 noundef 0)
  %8 = zext i8 %7 to i32
  %9 = tail call ptr @try_val_to_str(i32 noundef %8, ptr noundef nonnull @edonkey_protocols)
  %10 = icmp eq ptr %9, null
  br i1 %10, label %17, label %11

11:                                               ; preds = %6
  %12 = getelementptr inbounds nuw i8, ptr %1, i64 8
  %13 = load ptr, ptr %12, align 8
  tail call void @col_clear(ptr noundef %13, i32 noundef 25)
  %14 = load i8, ptr @edonkey_desegment, align 1, !range !6, !noundef !7
  %15 = trunc nuw i8 %14 to i1
  tail call void @tcp_dissect_pdus(ptr noundef %0, ptr noundef %1, ptr noundef %2, i1 noundef zeroext %15, i32 noundef 5, ptr noundef nonnull @get_edonkey_tcp_pdu_len, ptr noundef nonnull @dissect_edonkey_tcp_pdu, ptr noundef %3)
  %16 = tail call i32 @tvb_reported_length(ptr noundef %0)
  br label %17

17:                                               ; preds = %6, %4, %11
  %.0 = phi i32 [ %16, %11 ], [ 0, %4 ], [ 0, %6 ]
  ret i32 %.0
}